target datalayout = "e-m:e-p270:32:32-p271:32:32-p272:64:64-i64:64-i128:128-f80:128-n8:16:32:64-S128"
target triple = "x86_64-pc-linux-gnu"

%class.FileInput = type { %"class.inputStream::Input", ptr, %class.fileStream }
%"class.inputStream::Input" = type { ptr }
%class.fileStream = type <{ %class.outputStream, ptr, i8, [7 x i8] }>
%class.outputStream = type { ptr, i32, i8, i32, i64, %class.TimeStamp, ptr, i64 }
%class.TimeStamp = type { i64 }

@.str.24 = private unnamed_addr constant [3 x i8] c"rt\00", align 1
@CompileCommandFile = external global ptr, align 8
@_ZTV9FileInput = linkonce_odr hidden unnamed_addr constant { [3 x ptr] } { [3 x ptr] [ptr null, ptr null, ptr @_ZN9FileInput4readEPcm] }, comdat, align 8
@_ZTVN11inputStream5InputE = linkonce_odr hidden unnamed_addr constant { [3 x ptr] } { [3 x ptr] [ptr null, ptr null, ptr @__cxa_pure_virtual] }, comdat, align 8
@_ZTV10fileStream = external unnamed_addr constant { [7 x ptr] }, align 8

; Function Attrs: mustprogress nounwind uwtable
define linkonce_odr hidden void @_ZN10fileStreamC2EP8_IO_FILEb(ptr noundef nonnull align 8 dereferenceable(65) %0, ptr noundef %1, i1 noundef zeroext %2) unnamed_addr #1 comdat align 2 {
  %4 = alloca ptr, align 8
  %5 = alloca ptr, align 8
  %6 = alloca i8, align 1
  store ptr %0, ptr %4, align 8
  store ptr %1, ptr %5, align 8
  %7 = zext i1 %2 to i8
  store i8 %7, ptr %6, align 1
  %8 = load ptr, ptr %4, align 8
  call void @_ZN12outputStreamC2Eb(ptr noundef nonnull align 8 dereferenceable(56) %8, i1 noundef zeroext false)
  store ptr getelementptr inbounds inrange(-16, 40) ({ [7 x ptr] }, ptr @_ZTV10fileStream, i32 0, i32 0, i32 2), ptr %8, align 8
  %9 = load ptr, ptr %5, align 8
  %10 = getelementptr inbounds %class.fileStream, ptr %8, i32 0, i32 1
  store ptr %9, ptr %10, align 8
  %11 = load i8, ptr %6, align 1
  %12 = trunc i8 %11 to i1
  %13 = getelementptr inbounds %class.fileStream, ptr %8, i32 0, i32 2
  %14 = zext i1 %12 to i8
  store i8 %14, ptr %13, align 8
  ret void
}

; Function Attrs: mustprogress nounwind uwtable
define linkonce_odr hidden void @_ZN11inputStream5InputC2Ev(ptr noundef nonnull align 8 dereferenceable(8) %0) unnamed_addr #1 comdat align 2 {
  %2 = alloca ptr, align 8
  store ptr %0, ptr %2, align 8
  %3 = load ptr, ptr %2, align 8
  store ptr getelementptr inbounds inrange(-16, 8) ({ [3 x ptr] }, ptr @_ZTVN11inputStream5InputE, i32 0, i32 0, i32 2), ptr %3, align 8
  ret void
}

; Function Attrs: mustprogress nounwind uwtable
define linkonce_odr hidden void @_ZN9FileInputD2Ev(ptr noundef nonnull align 8 dereferenceable(88) %0) unnamed_addr #1 comdat align 2 {
  %2 = alloca ptr, align 8
  store ptr %0, ptr %2, align 8
  %3 = load ptr, ptr %2, align 8
  store ptr getelementptr inbounds inrange(-16, 8) ({ [3 x ptr] }, ptr @_ZTV9FileInput, i32 0, i32 0, i32 2), ptr %3, align 8
  %4 = getelementptr inbounds %class.FileInput, ptr %3, i32 0, i32 2
  call void @_ZN10fileStreamD1Ev(ptr noundef nonnull align 8 dereferenceable(65) %4) #11
  ret void
}

; Function Attrs: mustprogress nounwind uwtable
define linkonce_odr hidden void @_ZN9FileInputC2IJP8_IO_FILEbEEEDpT_(ptr noundef nonnull align 8 dereferenceable(88) %0, ptr noundef %1, i1 noundef zeroext %2) unnamed_addr #1 comdat align 2 {
  %4 = alloca ptr, align 8
  %5 = alloca ptr, align 8
  %6 = alloca i8, align 1
  store ptr %0, ptr %4, align 8
  store ptr %1, ptr %5, align 8
  %7 = zext i1 %2 to i8
  store i8 %7, ptr %6, align 1
  %8 = load ptr, ptr %4, align 8
  call void @_ZN11inputStream5InputC2Ev(ptr noundef nonnull align 8 dereferenceable(8) %8) #11
  store ptr getelementptr inbounds inrange(-16, 8) ({ [3 x ptr] }, ptr @_ZTV9FileInput, i32 0, i32 0, i32 2), ptr %8, align 8
  %9 = getelementptr inbounds %class.FileInput, ptr %8, i32 0, i32 1
  %10 = getelementptr inbounds %class.FileInput, ptr %8, i32 0, i32 2
  store ptr %10, ptr %9, align 8
  %11 = getelementptr inbounds %class.FileInput, ptr %8, i32 0, i32 2
  %12 = load ptr, ptr %5, align 8
  %13 = load i8, ptr %6, align 1
  %14 = trunc i8 %13 to i1
  call void @_ZN10fileStreamC2EP8_IO_FILEb(ptr noundef nonnull align 8 dereferenceable(65) %11, ptr noundef %12, i1 noundef zeroext %14)
  ret void
}

; Function Attrs: mustprogress nounwind uwtable
define internal noundef ptr @_ZL7cc_filev() #1 {
  %1 = load ptr, ptr @CompileCommandFile, align 8
  ret ptr %1
}

; Function Attrs: mustprogress nounwind uwtable
define hidden noundef zeroext i1 @_ZN14CompilerOracle15parse_from_fileEv() #1 align 2 {
  %1 = alloca i1, align 1
  %2 = alloca ptr, align 8
  %3 = alloca %class.FileInput, align 8
  %4 = call noundef ptr @_ZL7cc_filev()
  %5 = call noundef ptr @_ZN2os5fopenEPKcS1_(ptr noundef %4, ptr noundef @.str.24)
  store ptr %5, ptr %2, align 8
  %6 = load ptr, ptr %2, align 8
  %7 = icmp eq ptr %6, null
  br i1 %7, label %8, label %9

8:                                                ; preds = %0
  store i1 true, ptr %1, align 1
  br label %12

9:                                                ; preds = %0
  %10 = load ptr, ptr %2, align 8
  call void @_ZN9FileInputC2IJP8_IO_FILEbEEEDpT_(ptr noundef nonnull align 8 dereferenceable(88) %3, ptr noundef %10, i1 noundef zeroext true)
  %11 = call noundef zeroext i1 @_ZN14CompilerOracle16parse_from_inputEPN11inputStream5InputEPFbPcE(ptr noundef %3, ptr noundef @_ZN14CompilerOracle15parse_from_lineEPc)
  store i1 %11, ptr %1, align 1
  call void @_ZN9FileInputD2Ev(ptr noundef nonnull align 8 dereferenceable(88) %3) #11
  br label %12

12:                                               ; preds = %9, %8
  %13 = load i1, ptr %1, align 1
  ret i1 %13
}