; Function Attrs: mustprogress nounwind uwtable
define hidden noundef zeroext i1 @_ZN14CompilerOracle15parse_from_fileEv() local_unnamed_addr #2 align 2 {
  %1 = alloca %class.FileInput, align 8
  %2 = load ptr, ptr @CompileCommandFile, align 8
  %3 = tail call noundef ptr @_ZN2os5fopenEPKcS1_(ptr noundef %2, ptr noundef nonnull @.str.24) #19
  %4 = icmp eq ptr %3, null
  br i1 %4, label %11, label %5

5:                                                ; preds = %0
  store ptr getelementptr inbounds inrange(-16, 8) (i8, ptr @_ZTV9FileInput, i64 16), ptr %1, align 8
  %6 = getelementptr inbounds i8, ptr %1, i64 8
  %7 = getelementptr inbounds i8, ptr %1, i64 16
  store ptr %7, ptr %6, align 8
  call void @_ZN12outputStreamC2Eb(ptr noundef nonnull align 8 dereferenceable(56) %7, i1 noundef zeroext false) #19
  store ptr getelementptr inbounds inrange(-16, 40) (i8, ptr @_ZTV10fileStream, i64 16), ptr %7, align 8
  %8 = getelementptr inbounds i8, ptr %1, i64 72
  store ptr %3, ptr %8, align 8
  %9 = getelementptr inbounds i8, ptr %1, i64 80
  store i8 1, ptr %9, align 8
  %10 = call noundef zeroext i1 @_ZN14CompilerOracle16parse_from_inputEPN11inputStream5InputEPFbPcE(ptr noundef nonnull %1, ptr noundef nonnull @_ZN14CompilerOracle15parse_from_lineEPc)
  store ptr getelementptr inbounds inrange(-16, 8) (i8, ptr @_ZTV9FileInput, i64 16), ptr %1, align 8
  call void @_ZN10fileStreamD1Ev(ptr noundef nonnull align 8 dereferenceable(65) %7) #19
  br label %11

11:                                               ; preds = %0, %5
  %.0 = phi i1 [ %10, %5 ], [ true, %0 ]
  ret i1 %.0
}